target datalayout = "e-m:e-p270:32:32-p271:32:32-p272:64:64-i64:64-i128:128-f80:128-n8:16:32:64-S128"
target triple = "x86_64-pc-linux-gnu"

%struct.rb_code_location_struct = type { %struct.rb_code_position_struct, %struct.rb_code_position_struct }
%struct.rb_code_position_struct = type { i32, i32 }
%struct.RNode = type { i64, %struct.rb_code_location_struct, i32 }
%struct.RNode_LIST = type { %struct.RNode, ptr, %union.anon.15, ptr }
%union.anon.15 = type { i64 }

@.str.729 = private unnamed_addr constant [35 x i8] c"block argument should not be given\00", align 1

; Function Attrs: inlinehint nounwind sspstrong uwtable
define internal zeroext i1 @nd_type_p(ptr noundef %0, i32 noundef %1) #6 {
  %3 = alloca ptr, align 8
  %4 = alloca i32, align 4
  store ptr %0, ptr %3, align 8, !tbaa !33
  store i32 %1, ptr %4, align 4, !tbaa !14
  %5 = load ptr, ptr %3, align 8, !tbaa !33
  %6 = getelementptr inbounds nuw %struct.RNode, ptr %5, i32 0, i32 0
  %7 = load i64, ptr %6, align 8, !tbaa !175
  %8 = and i64 %7, 32512
  %9 = lshr i64 %8, 8
  %10 = trunc i64 %9 to i32
  %11 = load i32, ptr %4, align 4, !tbaa !14
  %12 = icmp eq i32 %10, %11
  ret i1 %12
}

; Function Attrs: nounwind sspstrong uwtable
define internal void @no_blockarg(ptr noundef %0, ptr noundef %1) #0 {
  %3 = alloca ptr, align 8
  %4 = alloca ptr, align 8
  store ptr %0, ptr %3, align 8, !tbaa !6
  store ptr %1, ptr %4, align 8, !tbaa !33
  %5 = load ptr, ptr %4, align 8, !tbaa !33
  %6 = call zeroext i1 @nd_type_p(ptr noundef %5, i32 noundef 79)
  br i1 %6, label %7, label %9

7:                                                ; preds = %2
  %8 = load ptr, ptr %3, align 8, !tbaa !6
  call void (ptr, ptr, ...) @ripper_compile_error(ptr noundef %8, ptr noundef @.str.729)
  br label %9

9:                                                ; preds = %7, %2
  ret void
}

; Function Attrs: nounwind sspstrong uwtable
define internal ptr @ret_args(ptr noundef %0, ptr noundef %1) #0 {
  %3 = alloca ptr, align 8
  %4 = alloca ptr, align 8
  store ptr %0, ptr %3, align 8, !tbaa !6
  store ptr %1, ptr %4, align 8, !tbaa !33
  %5 = load ptr, ptr %4, align 8, !tbaa !33
  %6 = icmp ne ptr %5, null
  br i1 %6, label %7, label %22

7:                                                ; preds = %2
  %8 = load ptr, ptr %3, align 8, !tbaa !6
  %9 = load ptr, ptr %4, align 8, !tbaa !33
  call void @no_blockarg(ptr noundef %8, ptr noundef %9)
  %10 = load ptr, ptr %4, align 8, !tbaa !33
  %11 = call zeroext i1 @nd_type_p(ptr noundef %10, i32 noundef 43)
  br i1 %11, label %12, label %21

12:                                               ; preds = %7
  %13 = load ptr, ptr %4, align 8, !tbaa !33
  %14 = getelementptr inbounds nuw %struct.RNode_LIST, ptr %13, i32 0, i32 3
  %15 = load ptr, ptr %14, align 8, !tbaa !279
  %16 = icmp ne ptr %15, null
  br i1 %16, label %21, label %17

17:                                               ; preds = %12
  %18 = load ptr, ptr %4, align 8, !tbaa !33
  %19 = getelementptr inbounds nuw %struct.RNode_LIST, ptr %18, i32 0, i32 1
  %20 = load ptr, ptr %19, align 8, !tbaa !277
  store ptr %20, ptr %4, align 8, !tbaa !33
  br label %21

21:                                               ; preds = %17, %12, %7
  br label %22

22:                                               ; preds = %21, %2
  %23 = load ptr, ptr %4, align 8, !tbaa !33
  ret ptr %23
}