; Function Attrs: nounwind sspstrong uwtable
define internal fastcc ptr @ret_args(ptr noundef %0, ptr noundef readonly captures(address_is_null, ret: address, provenance) %1) unnamed_addr #0 {
  %.not = icmp eq ptr %1, null
  br i1 %.not, label %15, label %3

3:                                                ; preds = %2
  %.val9 = load i64, ptr %1, align 8, !tbaa !61
  %4 = and i64 %.val9, 32512
  %5 = icmp eq i64 %4, 20224
  br i1 %5, label %6, label %no_blockarg.exit

6:                                                ; preds = %3
  tail call void (ptr, ptr, ...) @ripper_compile_error(ptr noundef %0, ptr noundef nonnull @.str.729) #31
  %.val.pre = load i64, ptr %1, align 8, !tbaa !61
  br label %no_blockarg.exit

no_blockarg.exit:                                 ; preds = %3, %6
  %.val = phi i64 [ %.val9, %3 ], [ %.val.pre, %6 ]
  %7 = and i64 %.val, 32512
  %8 = icmp eq i64 %7, 11008
  br i1 %8, label %9, label %15

9:                                                ; preds = %no_blockarg.exit
  %10 = getelementptr inbounds nuw i8, ptr %1, i64 48
  %11 = load ptr, ptr %10, align 8, !tbaa !172
  %.not8 = icmp eq ptr %11, null
  br i1 %.not8, label %12, label %15

12:                                               ; preds = %9
  %13 = getelementptr inbounds nuw i8, ptr %1, i64 32
  %14 = load ptr, ptr %13, align 8, !tbaa !170
  br label %15

15:                                               ; preds = %no_blockarg.exit, %9, %12, %2
  %.0 = phi ptr [ %1, %9 ], [ %14, %12 ], [ %1, %no_blockarg.exit ], [ null, %2 ]
  ret ptr %.0
}